; Function Attrs: mustprogress uwtable
define dso_local noundef zeroext i1 @_ZNSt3__118shared_timed_mutex8try_lockEv(ptr noundef nonnull align 8 dereferenceable(144) %0) local_unnamed_addr #1 align 2 {
  tail call void @_ZNSt3__15mutex4lockEv(ptr noundef nonnull align 8 dereferenceable(140) %0)
  %2 = getelementptr inbounds nuw i8, ptr %0, i64 136
  %3 = load i32, ptr %2, align 8, !tbaa !13
  %4 = icmp eq i32 %3, 0
  br i1 %4, label %5, label %_ZNSt3__119__shared_mutex_base8try_lockEv.exit

5:                                                ; preds = %1
  store i32 -2147483648, ptr %2, align 8, !tbaa !13
  br label %_ZNSt3__119__shared_mutex_base8try_lockEv.exit

_ZNSt3__119__shared_mutex_base8try_lockEv.exit:   ; preds = %1, %5
  tail call void @_ZNSt3__15mutex6unlockEv(ptr noundef nonnull align 8 dereferenceable(140) %0) #6
  ret i1 %4
}